target datalayout = "e-m:e-p270:32:32-p271:32:32-p272:64:64-i64:64-i128:128-f80:128-n8:16:32:64-S128"
target triple = "x86_64-pc-linux-gnu"

%"struct.std::_Rb_tree_header" = type { %"struct.std::_Rb_tree_node_base", i64 }
%"struct.std::_Rb_tree_node_base" = type { i32, ptr, ptr, ptr }
%"class.std::_Rb_tree.274" = type { %"struct.std::_Rb_tree<llvm::MVT::SimpleValueType, std::pair<const llvm::MVT::SimpleValueType, std::multimap<int, (anonymous namespace)::InstructionMemo>>, std::_Select1st<std::pair<const llvm::MVT::SimpleValueType, std::multimap<int, (anonymous namespace)::InstructionMemo>>>, std::less<llvm::MVT::SimpleValueType>>::_Rb_tree_impl" }
%"struct.std::_Rb_tree<llvm::MVT::SimpleValueType, std::pair<const llvm::MVT::SimpleValueType, std::multimap<int, (anonymous namespace)::InstructionMemo>>, std::_Select1st<std::pair<const llvm::MVT::SimpleValueType, std::multimap<int, (anonymous namespace)::InstructionMemo>>>, std::less<llvm::MVT::SimpleValueType>>::_Rb_tree_impl" = type { [8 x i8], %"struct.std::_Rb_tree_header" }
%"struct.std::pair.475" = type { i16, %"class.std::multimap" }
%"class.std::multimap" = type { %"class.std::_Rb_tree.278" }
%"class.std::_Rb_tree.278" = type { %"struct.std::_Rb_tree<int, std::pair<const int, (anonymous namespace)::InstructionMemo>, std::_Select1st<std::pair<const int, (anonymous namespace)::InstructionMemo>>, std::less<int>>::_Rb_tree_impl" }
%"struct.std::_Rb_tree<int, std::pair<const int, (anonymous namespace)::InstructionMemo>, std::_Select1st<std::pair<const int, (anonymous namespace)::InstructionMemo>>, std::less<int>>::_Rb_tree_impl" = type { [8 x i8], %"struct.std::_Rb_tree_header" }
%"struct.std::_Rb_tree_node.473" = type { %"struct.std::_Rb_tree_node_base", %"struct.__gnu_cxx::__aligned_membuf.474" }
%"struct.__gnu_cxx::__aligned_membuf.474" = type { [56 x i8] }

; Function Attrs: mustprogress nounwind uwtable
define internal void @_ZNSt15__new_allocatorISt13_Rb_tree_nodeISt4pairIKiN12_GLOBAL__N_115InstructionMemoEEEED2Ev(ptr noundef nonnull align 1 dereferenceable(1) %0) unnamed_addr #1 align 2 {
  %2 = alloca ptr, align 8
  store ptr %0, ptr %2, align 8
  ret void
}

; Function Attrs: mustprogress nounwind uwtable
define internal void @_ZNSaISt13_Rb_tree_nodeISt4pairIKiN12_GLOBAL__N_115InstructionMemoEEEED2Ev(ptr noundef nonnull align 1 dereferenceable(1) %0) unnamed_addr #1 align 2 {
  %2 = alloca ptr, align 8
  store ptr %0, ptr %2, align 8
  %3 = load ptr, ptr %2, align 8
  call void @_ZNSt15__new_allocatorISt13_Rb_tree_nodeISt4pairIKiN12_GLOBAL__N_115InstructionMemoEEEED2Ev(ptr noundef nonnull align 1 dereferenceable(1) %3) #11
  ret void
}

; Function Attrs: mustprogress nounwind uwtable
define internal noundef ptr @_ZNKSt8_Rb_treeIiSt4pairIKiN12_GLOBAL__N_115InstructionMemoEESt10_Select1stIS4_ESt4lessIiESaIS4_EE9_M_mbeginEv(ptr noundef nonnull align 8 dereferenceable(48) %0) #1 align 2 {
  %2 = alloca ptr, align 8
  store ptr %0, ptr %2, align 8
  %3 = load ptr, ptr %2, align 8
  %4 = getelementptr inbounds nuw %"class.std::_Rb_tree.278", ptr %3, i32 0, i32 0
  %5 = getelementptr inbounds i8, ptr %4, i64 8
  %6 = getelementptr inbounds nuw %"struct.std::_Rb_tree_header", ptr %5, i32 0, i32 0
  %7 = getelementptr inbounds nuw %"struct.std::_Rb_tree_node_base", ptr %6, i32 0, i32 1
  %8 = load ptr, ptr %7, align 8
  ret ptr %8
}

; Function Attrs: mustprogress nounwind uwtable
define internal void @_ZNSt8_Rb_treeIiSt4pairIKiN12_GLOBAL__N_115InstructionMemoEESt10_Select1stIS4_ESt4lessIiESaIS4_EE13_Rb_tree_implIS8_Lb1EED2Ev(ptr noundef nonnull align 8 dereferenceable(48) %0) unnamed_addr #1 align 2 {
  %2 = alloca ptr, align 8
  store ptr %0, ptr %2, align 8
  %3 = load ptr, ptr %2, align 8
  call void @_ZNSaISt13_Rb_tree_nodeISt4pairIKiN12_GLOBAL__N_115InstructionMemoEEEED2Ev(ptr noundef nonnull align 1 dereferenceable(1) %3) #11
  ret void
}

; Function Attrs: mustprogress nounwind uwtable
define internal noundef ptr @_ZNSt8_Rb_treeIiSt4pairIKiN12_GLOBAL__N_115InstructionMemoEESt10_Select1stIS4_ESt4lessIiESaIS4_EE8_M_beginEv(ptr noundef nonnull align 8 dereferenceable(48) %0) #1 align 2 {
  %2 = alloca ptr, align 8
  store ptr %0, ptr %2, align 8
  %3 = load ptr, ptr %2, align 8
  %4 = call noundef ptr @_ZNKSt8_Rb_treeIiSt4pairIKiN12_GLOBAL__N_115InstructionMemoEESt10_Select1stIS4_ESt4lessIiESaIS4_EE9_M_mbeginEv(ptr noundef nonnull align 8 dereferenceable(48) %3) #11
  ret ptr %4
}

; Function Attrs: mustprogress nounwind uwtable
define internal void @_ZNSt8_Rb_treeIiSt4pairIKiN12_GLOBAL__N_115InstructionMemoEESt10_Select1stIS4_ESt4lessIiESaIS4_EED2Ev(ptr noundef nonnull align 8 dereferenceable(48) %0) unnamed_addr #1 align 2 {
  %2 = alloca ptr, align 8
  store ptr %0, ptr %2, align 8
  %3 = load ptr, ptr %2, align 8
  %4 = call noundef ptr @_ZNSt8_Rb_treeIiSt4pairIKiN12_GLOBAL__N_115InstructionMemoEESt10_Select1stIS4_ESt4lessIiESaIS4_EE8_M_beginEv(ptr noundef nonnull align 8 dereferenceable(48) %3) #11
  call void @_ZNSt8_Rb_treeIiSt4pairIKiN12_GLOBAL__N_115InstructionMemoEESt10_Select1stIS4_ESt4lessIiESaIS4_EE8_M_eraseEPSt13_Rb_tree_nodeIS4_E(ptr noundef nonnull align 8 dereferenceable(48) %3, ptr noundef %4)
  %5 = getelementptr inbounds nuw %"class.std::_Rb_tree.278", ptr %3, i32 0, i32 0
  call void @_ZNSt8_Rb_treeIiSt4pairIKiN12_GLOBAL__N_115InstructionMemoEESt10_Select1stIS4_ESt4lessIiESaIS4_EE13_Rb_tree_implIS8_Lb1EED2Ev(ptr noundef nonnull align 8 dereferenceable(48) %5) #11
  ret void
}

; Function Attrs: mustprogress nounwind uwtable
define internal void @_ZNSt8multimapIiN12_GLOBAL__N_115InstructionMemoESt4lessIiESaISt4pairIKiS1_EEED2Ev(ptr noundef nonnull align 8 dereferenceable(48) %0) unnamed_addr #1 align 2 {
  %2 = alloca ptr, align 8
  store ptr %0, ptr %2, align 8
  %3 = load ptr, ptr %2, align 8
  %4 = getelementptr inbounds nuw %"class.std::multimap", ptr %3, i32 0, i32 0
  call void @_ZNSt8_Rb_treeIiSt4pairIKiN12_GLOBAL__N_115InstructionMemoEESt10_Select1stIS4_ESt4lessIiESaIS4_EED2Ev(ptr noundef nonnull align 8 dereferenceable(48) %4) #11
  ret void
}

; Function Attrs: mustprogress nounwind uwtable
define internal void @_ZNSt4pairIKN4llvm3MVT15SimpleValueTypeESt8multimapIiN12_GLOBAL__N_115InstructionMemoESt4lessIiESaIS_IKiS6_EEEED2Ev(ptr noundef nonnull align 8 dereferenceable(56) %0) unnamed_addr #1 align 2 {
  %2 = alloca ptr, align 8
  store ptr %0, ptr %2, align 8
  %3 = load ptr, ptr %2, align 8
  %4 = getelementptr inbounds nuw %"struct.std::pair.475", ptr %3, i32 0, i32 1
  call void @_ZNSt8multimapIiN12_GLOBAL__N_115InstructionMemoESt4lessIiESaISt4pairIKiS1_EEED2Ev(ptr noundef nonnull align 8 dereferenceable(48) %4) #11
  ret void
}

; Function Attrs: mustprogress nounwind uwtable
define internal noundef ptr @_ZN9__gnu_cxx16__aligned_membufISt4pairIKN4llvm3MVT15SimpleValueTypeESt8multimapIiN12_GLOBAL__N_115InstructionMemoESt4lessIiESaIS1_IKiS8_EEEEE7_M_addrEv(ptr noundef nonnull align 8 dereferenceable(56) %0) #1 align 2 {
  %2 = alloca ptr, align 8
  store ptr %0, ptr %2, align 8
  %3 = load ptr, ptr %2, align 8
  %4 = getelementptr inbounds nuw %"struct.__gnu_cxx::__aligned_membuf.474", ptr %3, i32 0, i32 0
  ret ptr %4
}

; Function Attrs: mustprogress nounwind uwtable
define internal void @_ZNSt15__new_allocatorISt13_Rb_tree_nodeISt4pairIKN4llvm3MVT15SimpleValueTypeESt8multimapIiN12_GLOBAL__N_115InstructionMemoESt4lessIiESaIS1_IKiS8_EEEEEE10deallocateEPSG_m(ptr noundef nonnull align 1 dereferenceable(1) %0, ptr noundef %1, i64 noundef %2) #1 align 2 {
  %4 = alloca ptr, align 8
  %5 = alloca ptr, align 8
  %6 = alloca i64, align 8
  store ptr %0, ptr %4, align 8
  store ptr %1, ptr %5, align 8
  store i64 %2, ptr %6, align 8
  %7 = load ptr, ptr %5, align 8
  %8 = load i64, ptr %6, align 8
  %9 = mul i64 %8, 88
  call void @_ZdlPvm(ptr noundef %7, i64 noundef %9) #15
  ret void
}

; Function Attrs: mustprogress nounwind uwtable
define internal void @_ZNSt15__new_allocatorISt13_Rb_tree_nodeISt4pairIKN4llvm3MVT15SimpleValueTypeESt8multimapIiN12_GLOBAL__N_115InstructionMemoESt4lessIiESaIS1_IKiS8_EEEEEE7destroyISF_EEvPT_(ptr noundef nonnull align 1 dereferenceable(1) %0, ptr noundef %1) #1 align 2 {
  %3 = alloca ptr, align 8
  %4 = alloca ptr, align 8
  store ptr %0, ptr %3, align 8
  store ptr %1, ptr %4, align 8
  %5 = load ptr, ptr %4, align 8
  call void @_ZNSt4pairIKN4llvm3MVT15SimpleValueTypeESt8multimapIiN12_GLOBAL__N_115InstructionMemoESt4lessIiESaIS_IKiS6_EEEED2Ev(ptr noundef nonnull align 8 dereferenceable(56) %5) #11
  ret void
}

; Function Attrs: mustprogress nounwind uwtable
define internal noundef ptr @_ZN9__gnu_cxx16__aligned_membufISt4pairIKN4llvm3MVT15SimpleValueTypeESt8multimapIiN12_GLOBAL__N_115InstructionMemoESt4lessIiESaIS1_IKiS8_EEEEE6_M_ptrEv(ptr noundef nonnull align 8 dereferenceable(56) %0) #1 align 2 {
  %2 = alloca ptr, align 8
  store ptr %0, ptr %2, align 8
  %3 = load ptr, ptr %2, align 8
  %4 = call noundef ptr @_ZN9__gnu_cxx16__aligned_membufISt4pairIKN4llvm3MVT15SimpleValueTypeESt8multimapIiN12_GLOBAL__N_115InstructionMemoESt4lessIiESaIS1_IKiS8_EEEEE7_M_addrEv(ptr noundef nonnull align 8 dereferenceable(56) %3) #11
  ret ptr %4
}

; Function Attrs: mustprogress nounwind uwtable
define internal void @_ZNSt16allocator_traitsISaISt13_Rb_tree_nodeISt4pairIKN4llvm3MVT15SimpleValueTypeESt8multimapIiN12_GLOBAL__N_115InstructionMemoESt4lessIiESaIS1_IKiS8_EEEEEEE10deallocateERSH_PSG_m(ptr noundef nonnull align 1 dereferenceable(1) %0, ptr noundef %1, i64 noundef %2) #1 align 2 {
  %4 = alloca ptr, align 8
  %5 = alloca ptr, align 8
  %6 = alloca i64, align 8
  store ptr %0, ptr %4, align 8
  store ptr %1, ptr %5, align 8
  store i64 %2, ptr %6, align 8
  %7 = load ptr, ptr %4, align 8
  %8 = load ptr, ptr %5, align 8
  %9 = load i64, ptr %6, align 8
  call void @_ZNSt15__new_allocatorISt13_Rb_tree_nodeISt4pairIKN4llvm3MVT15SimpleValueTypeESt8multimapIiN12_GLOBAL__N_115InstructionMemoESt4lessIiESaIS1_IKiS8_EEEEEE10deallocateEPSG_m(ptr noundef nonnull align 1 dereferenceable(1) %7, ptr noundef %8, i64 noundef %9)
  ret void
}

; Function Attrs: mustprogress nounwind uwtable
define internal void @_ZNSt16allocator_traitsISaISt13_Rb_tree_nodeISt4pairIKN4llvm3MVT15SimpleValueTypeESt8multimapIiN12_GLOBAL__N_115InstructionMemoESt4lessIiESaIS1_IKiS8_EEEEEEE7destroyISF_EEvRSH_PT_(ptr noundef nonnull align 1 dereferenceable(1) %0, ptr noundef %1) #1 align 2 {
  %3 = alloca ptr, align 8
  %4 = alloca ptr, align 8
  store ptr %0, ptr %3, align 8
  store ptr %1, ptr %4, align 8
  %5 = load ptr, ptr %3, align 8
  %6 = load ptr, ptr %4, align 8
  call void @_ZNSt15__new_allocatorISt13_Rb_tree_nodeISt4pairIKN4llvm3MVT15SimpleValueTypeESt8multimapIiN12_GLOBAL__N_115InstructionMemoESt4lessIiESaIS1_IKiS8_EEEEEE7destroyISF_EEvPT_(ptr noundef nonnull align 1 dereferenceable(1) %5, ptr noundef %6) #11
  ret void
}

; Function Attrs: mustprogress nounwind uwtable
define internal noundef ptr @_ZNSt13_Rb_tree_nodeISt4pairIKN4llvm3MVT15SimpleValueTypeESt8multimapIiN12_GLOBAL__N_115InstructionMemoESt4lessIiESaIS0_IKiS7_EEEEE9_M_valptrEv(ptr noundef nonnull align 8 dereferenceable(88) %0) #1 align 2 {
  %2 = alloca ptr, align 8
  store ptr %0, ptr %2, align 8
  %3 = load ptr, ptr %2, align 8
  %4 = getelementptr inbounds nuw %"struct.std::_Rb_tree_node.473", ptr %3, i32 0, i32 1
  %5 = call noundef ptr @_ZN9__gnu_cxx16__aligned_membufISt4pairIKN4llvm3MVT15SimpleValueTypeESt8multimapIiN12_GLOBAL__N_115InstructionMemoESt4lessIiESaIS1_IKiS8_EEEEE6_M_ptrEv(ptr noundef nonnull align 8 dereferenceable(56) %4) #11
  ret ptr %5
}

; Function Attrs: mustprogress nounwind uwtable
define internal noundef nonnull align 1 dereferenceable(1) ptr @_ZNSt8_Rb_treeIN4llvm3MVT15SimpleValueTypeESt4pairIKS2_St8multimapIiN12_GLOBAL__N_115InstructionMemoESt4lessIiESaIS3_IKiS7_EEEESt10_Select1stISE_ES8_IS2_ESaISE_EE21_M_get_Node_allocatorEv(ptr noundef nonnull align 8 dereferenceable(48) %0) #1 align 2 {
  %2 = alloca ptr, align 8
  store ptr %0, ptr %2, align 8
  %3 = load ptr, ptr %2, align 8
  %4 = getelementptr inbounds nuw %"class.std::_Rb_tree.274", ptr %3, i32 0, i32 0
  ret ptr %4
}

; Function Attrs: mustprogress nounwind uwtable
define internal void @_ZNSt8_Rb_treeIN4llvm3MVT15SimpleValueTypeESt4pairIKS2_St8multimapIiN12_GLOBAL__N_115InstructionMemoESt4lessIiESaIS3_IKiS7_EEEESt10_Select1stISE_ES8_IS2_ESaISE_EE11_M_put_nodeEPSt13_Rb_tree_nodeISE_E(ptr noundef nonnull align 8 dereferenceable(48) %0, ptr noundef %1) #1 align 2 {
  %3 = alloca ptr, align 8
  %4 = alloca ptr, align 8
  store ptr %0, ptr %3, align 8
  store ptr %1, ptr %4, align 8
  %5 = load ptr, ptr %3, align 8
  %6 = call noundef nonnull align 1 dereferenceable(1) ptr @_ZNSt8_Rb_treeIN4llvm3MVT15SimpleValueTypeESt4pairIKS2_St8multimapIiN12_GLOBAL__N_115InstructionMemoESt4lessIiESaIS3_IKiS7_EEEESt10_Select1stISE_ES8_IS2_ESaISE_EE21_M_get_Node_allocatorEv(ptr noundef nonnull align 8 dereferenceable(48) %5) #11
  %7 = load ptr, ptr %4, align 8
  call void @_ZNSt16allocator_traitsISaISt13_Rb_tree_nodeISt4pairIKN4llvm3MVT15SimpleValueTypeESt8multimapIiN12_GLOBAL__N_115InstructionMemoESt4lessIiESaIS1_IKiS8_EEEEEEE10deallocateERSH_PSG_m(ptr noundef nonnull align 1 dereferenceable(1) %6, ptr noundef %7, i64 noundef 1)
  ret void
}

; Function Attrs: mustprogress nounwind uwtable
define internal void @_ZNSt8_Rb_treeIN4llvm3MVT15SimpleValueTypeESt4pairIKS2_St8multimapIiN12_GLOBAL__N_115InstructionMemoESt4lessIiESaIS3_IKiS7_EEEESt10_Select1stISE_ES8_IS2_ESaISE_EE15_M_destroy_nodeEPSt13_Rb_tree_nodeISE_E(ptr noundef nonnull align 8 dereferenceable(48) %0, ptr noundef %1) #1 align 2 {
  %3 = alloca ptr, align 8
  %4 = alloca ptr, align 8
  store ptr %0, ptr %3, align 8
  store ptr %1, ptr %4, align 8
  %5 = load ptr, ptr %3, align 8
  %6 = call noundef nonnull align 1 dereferenceable(1) ptr @_ZNSt8_Rb_treeIN4llvm3MVT15SimpleValueTypeESt4pairIKS2_St8multimapIiN12_GLOBAL__N_115InstructionMemoESt4lessIiESaIS3_IKiS7_EEEESt10_Select1stISE_ES8_IS2_ESaISE_EE21_M_get_Node_allocatorEv(ptr noundef nonnull align 8 dereferenceable(48) %5) #11
  %7 = load ptr, ptr %4, align 8
  %8 = call noundef ptr @_ZNSt13_Rb_tree_nodeISt4pairIKN4llvm3MVT15SimpleValueTypeESt8multimapIiN12_GLOBAL__N_115InstructionMemoESt4lessIiESaIS0_IKiS7_EEEEE9_M_valptrEv(ptr noundef nonnull align 8 dereferenceable(88) %7)
  call void @_ZNSt16allocator_traitsISaISt13_Rb_tree_nodeISt4pairIKN4llvm3MVT15SimpleValueTypeESt8multimapIiN12_GLOBAL__N_115InstructionMemoESt4lessIiESaIS1_IKiS8_EEEEEEE7destroyISF_EEvRSH_PT_(ptr noundef nonnull align 1 dereferenceable(1) %6, ptr noundef %8) #11
  ret void
}

; Function Attrs: mustprogress nounwind uwtable
define internal void @_ZNSt8_Rb_treeIN4llvm3MVT15SimpleValueTypeESt4pairIKS2_St8multimapIiN12_GLOBAL__N_115InstructionMemoESt4lessIiESaIS3_IKiS7_EEEESt10_Select1stISE_ES8_IS2_ESaISE_EE12_M_drop_nodeEPSt13_Rb_tree_nodeISE_E(ptr noundef nonnull align 8 dereferenceable(48) %0, ptr noundef %1) #1 align 2 {
  %3 = alloca ptr, align 8
  %4 = alloca ptr, align 8
  store ptr %0, ptr %3, align 8
  store ptr %1, ptr %4, align 8
  %5 = load ptr, ptr %3, align 8
  %6 = load ptr, ptr %4, align 8
  call void @_ZNSt8_Rb_treeIN4llvm3MVT15SimpleValueTypeESt4pairIKS2_St8multimapIiN12_GLOBAL__N_115InstructionMemoESt4lessIiESaIS3_IKiS7_EEEESt10_Select1stISE_ES8_IS2_ESaISE_EE15_M_destroy_nodeEPSt13_Rb_tree_nodeISE_E(ptr noundef nonnull align 8 dereferenceable(48) %5, ptr noundef %6) #11
  %7 = load ptr, ptr %4, align 8
  call void @_ZNSt8_Rb_treeIN4llvm3MVT15SimpleValueTypeESt4pairIKS2_St8multimapIiN12_GLOBAL__N_115InstructionMemoESt4lessIiESaIS3_IKiS7_EEEESt10_Select1stISE_ES8_IS2_ESaISE_EE11_M_put_nodeEPSt13_Rb_tree_nodeISE_E(ptr noundef nonnull align 8 dereferenceable(48) %5, ptr noundef %7) #11
  ret void
}

; Function Attrs: mustprogress nounwind uwtable
define internal noundef ptr @_ZNSt8_Rb_treeIN4llvm3MVT15SimpleValueTypeESt4pairIKS2_St8multimapIiN12_GLOBAL__N_115InstructionMemoESt4lessIiESaIS3_IKiS7_EEEESt10_Select1stISE_ES8_IS2_ESaISE_EE7_S_leftEPSt18_Rb_tree_node_base(ptr noundef %0) #1 align 2 {
  %2 = alloca ptr, align 8
  store ptr %0, ptr %2, align 8
  %3 = load ptr, ptr %2, align 8
  %4 = getelementptr inbounds nuw %"struct.std::_Rb_tree_node_base", ptr %3, i32 0, i32 2
  %5 = load ptr, ptr %4, align 8
  ret ptr %5
}

; Function Attrs: mustprogress nounwind uwtable
define internal noundef ptr @_ZNSt8_Rb_treeIN4llvm3MVT15SimpleValueTypeESt4pairIKS2_St8multimapIiN12_GLOBAL__N_115InstructionMemoESt4lessIiESaIS3_IKiS7_EEEESt10_Select1stISE_ES8_IS2_ESaISE_EE8_S_rightEPSt18_Rb_tree_node_base(ptr noundef %0) #1 align 2 {
  %2 = alloca ptr, align 8
  store ptr %0, ptr %2, align 8
  %3 = load ptr, ptr %2, align 8
  %4 = getelementptr inbounds nuw %"struct.std::_Rb_tree_node_base", ptr %3, i32 0, i32 3
  %5 = load ptr, ptr %4, align 8
  ret ptr %5
}

; Function Attrs: mustprogress nounwind uwtable
define internal void @_ZNSt8_Rb_treeIN4llvm3MVT15SimpleValueTypeESt4pairIKS2_St8multimapIiN12_GLOBAL__N_115InstructionMemoESt4lessIiESaIS3_IKiS7_EEEESt10_Select1stISE_ES8_IS2_ESaISE_EE8_M_eraseEPSt13_Rb_tree_nodeISE_E(ptr noundef nonnull align 8 dereferenceable(48) %0, ptr noundef %1) #1 align 2 {
  %3 = alloca ptr, align 8
  %4 = alloca ptr, align 8
  %5 = alloca ptr, align 8
  store ptr %0, ptr %3, align 8
  store ptr %1, ptr %4, align 8
  %6 = load ptr, ptr %3, align 8
  br label %7

7:                                                ; preds = %10, %2
  %8 = load ptr, ptr %4, align 8
  %9 = icmp ne ptr %8, null
  br i1 %9, label %10, label %17

10:                                               ; preds = %7
  %11 = load ptr, ptr %4, align 8
  %12 = call noundef ptr @_ZNSt8_Rb_treeIN4llvm3MVT15SimpleValueTypeESt4pairIKS2_St8multimapIiN12_GLOBAL__N_115InstructionMemoESt4lessIiESaIS3_IKiS7_EEEESt10_Select1stISE_ES8_IS2_ESaISE_EE8_S_rightEPSt18_Rb_tree_node_base(ptr noundef %11) #11
  call void @_ZNSt8_Rb_treeIN4llvm3MVT15SimpleValueTypeESt4pairIKS2_St8multimapIiN12_GLOBAL__N_115InstructionMemoESt4lessIiESaIS3_IKiS7_EEEESt10_Select1stISE_ES8_IS2_ESaISE_EE8_M_eraseEPSt13_Rb_tree_nodeISE_E(ptr noundef nonnull align 8 dereferenceable(48) %6, ptr noundef %12)
  %13 = load ptr, ptr %4, align 8
  %14 = call noundef ptr @_ZNSt8_Rb_treeIN4llvm3MVT15SimpleValueTypeESt4pairIKS2_St8multimapIiN12_GLOBAL__N_115InstructionMemoESt4lessIiESaIS3_IKiS7_EEEESt10_Select1stISE_ES8_IS2_ESaISE_EE7_S_leftEPSt18_Rb_tree_node_base(ptr noundef %13) #11
  store ptr %14, ptr %5, align 8
  %15 = load ptr, ptr %4, align 8
  call void @_ZNSt8_Rb_treeIN4llvm3MVT15SimpleValueTypeESt4pairIKS2_St8multimapIiN12_GLOBAL__N_115InstructionMemoESt4lessIiESaIS3_IKiS7_EEEESt10_Select1stISE_ES8_IS2_ESaISE_EE12_M_drop_nodeEPSt13_Rb_tree_nodeISE_E(ptr noundef nonnull align 8 dereferenceable(48) %6, ptr noundef %15) #11
  %16 = load ptr, ptr %5, align 8
  store ptr %16, ptr %4, align 8
  br label %7, !llvm.loop !31

17:                                               ; preds = %7
  ret void
}