; Function Attrs: mustprogress nounwind uwtable
define internal fastcc void @_ZNSt8_Rb_treeIN4llvm3MVT15SimpleValueTypeESt4pairIKS2_St8multimapIiN12_GLOBAL__N_115InstructionMemoESt4lessIiESaIS3_IKiS7_EEEESt10_Select1stISE_ES8_IS2_ESaISE_EE8_M_eraseEPSt13_Rb_tree_nodeISE_E(ptr noundef %0) unnamed_addr #0 align 2 {
  %.not1 = icmp eq ptr %0, null
  br i1 %.not1, label %._crit_edge, label %.lr.ph

.lr.ph:                                           ; preds = %1, %.lr.ph
  %.02 = phi ptr [ %.0.val6, %.lr.ph ], [ %0, %1 ]
  %2 = getelementptr i8, ptr %.02, i64 24
  %.0.val = load ptr, ptr %2, align 8
  tail call fastcc void @_ZNSt8_Rb_treeIN4llvm3MVT15SimpleValueTypeESt4pairIKS2_St8multimapIiN12_GLOBAL__N_115InstructionMemoESt4lessIiESaIS3_IKiS7_EEEESt10_Select1stISE_ES8_IS2_ESaISE_EE8_M_eraseEPSt13_Rb_tree_nodeISE_E(ptr noundef %.0.val)
  %3 = getelementptr i8, ptr %.02, i64 16
  %.0.val6 = load ptr, ptr %3, align 8
  %4 = getelementptr i8, ptr %.02, i64 56
  %.val.i = load ptr, ptr %4, align 8
  tail call fastcc void @_ZNSt8_Rb_treeIiSt4pairIKiN12_GLOBAL__N_115InstructionMemoEESt10_Select1stIS4_ESt4lessIiESaIS4_EE8_M_eraseEPSt13_Rb_tree_nodeIS4_E(ptr noundef %.val.i)
  tail call void @_ZdlPvm(ptr noundef nonnull %.02, i64 noundef 88) #21
  %.not = icmp eq ptr %.0.val6, null
  br i1 %.not, label %._crit_edge, label %.lr.ph, !llvm.loop !117

._crit_edge:                                      ; preds = %.lr.ph, %1
  ret void
}